target datalayout = "e-m:e-p270:32:32-p271:32:32-p272:64:64-i64:64-i128:128-f80:128-n8:16:32:64-S128"
target triple = "x86_64-pc-linux-gnu"

%"class.llvm::SmallVectorBase" = type { ptr, i32, i32 }
%"class.std::__cxx11::basic_string" = type { %"struct.std::__cxx11::basic_string<char>::_Alloc_hider", i64, %union.anon }
%"struct.std::__cxx11::basic_string<char>::_Alloc_hider" = type { ptr }
%union.anon = type { i64, [8 x i8] }
%"class.llvm::TargetLoweringObjectFile" = type { %"class.llvm::MCObjectFileInfo", ptr, i8, i8, i8, i8, i32, i32, i32, i32, ptr, ptr, ptr }
%"class.llvm::MCObjectFileInfo" = type { ptr, i8, i8, i8, i32, i32, ptr, ptr, ptr, ptr, ptr, ptr, ptr, ptr, ptr, ptr, ptr, ptr, ptr, ptr, ptr, ptr, ptr, ptr, ptr, ptr, ptr, ptr, ptr, ptr, ptr, ptr, ptr, ptr, ptr, ptr, ptr, ptr, ptr, ptr, ptr, ptr, ptr, ptr, ptr, ptr, ptr, ptr, ptr, ptr, ptr, ptr, ptr, ptr, ptr, ptr, ptr, ptr, ptr, ptr, ptr, ptr, ptr, ptr, ptr, ptr, ptr, ptr, ptr, ptr, ptr, ptr, ptr, ptr, ptr, ptr, ptr, ptr, ptr, ptr, ptr, ptr, ptr, ptr, ptr, ptr, ptr, ptr, ptr, ptr, ptr, ptr, ptr, ptr, ptr, ptr, ptr, ptr, ptr, ptr, ptr, ptr, ptr, ptr, %"struct.std::array", i8, ptr }
%"struct.std::array" = type { [11 x ptr] }
%"class.llvm::TargetMachine" = type { ptr, ptr, %"class.llvm::DataLayout", %"class.llvm::Triple", %"class.std::__cxx11::basic_string", %"class.std::__cxx11::basic_string", i32, i32, i64, i32, %"class.std::unique_ptr.145", %"class.std::unique_ptr.153", %"class.std::unique_ptr.161", %"class.std::unique_ptr.169", i8, [7 x i8], %"class.std::optional.177", %"class.llvm::TargetOptions" }
%"class.llvm::DataLayout" = type { i8, i32, i32, i32, %"struct.llvm::MaybeAlign", %"struct.llvm::MaybeAlign", i32, i32, %"class.llvm::SmallVector.121", %"class.llvm::SmallVector.126", %"class.llvm::SmallVector.131", %"class.llvm::SmallVector.133", %"class.llvm::SmallVector.135", %"class.std::__cxx11::basic_string", %"struct.llvm::Align", %"struct.llvm::Align", ptr, %"class.llvm::SmallVector.140" }
%"struct.llvm::MaybeAlign" = type { %"class.std::optional" }
%"class.std::optional" = type { %"struct.std::_Optional_base" }
%"struct.std::_Optional_base" = type { %"struct.std::_Optional_payload" }
%"struct.std::_Optional_payload" = type { %"struct.std::_Optional_payload_base" }
%"struct.std::_Optional_payload_base" = type { %"union.std::_Optional_payload_base<llvm::Align>::_Storage", i8 }
%"union.std::_Optional_payload_base<llvm::Align>::_Storage" = type { %"struct.std::_Optional_payload_base<llvm::Align>::_Empty_byte" }
%"struct.std::_Optional_payload_base<llvm::Align>::_Empty_byte" = type { i8 }
%"class.llvm::SmallVector.121" = type { %"class.llvm::SmallVectorImpl.122", %"struct.llvm::SmallVectorStorage.125" }
%"class.llvm::SmallVectorImpl.122" = type { %"class.llvm::SmallVectorTemplateBase.123" }
%"class.llvm::SmallVectorTemplateBase.123" = type { %"class.llvm::SmallVectorTemplateCommon.124" }
%"class.llvm::SmallVectorTemplateCommon.124" = type { %"class.llvm::SmallVectorBase.55" }
%"class.llvm::SmallVectorBase.55" = type { ptr, i64, i64 }
%"struct.llvm::SmallVectorStorage.125" = type { [8 x i8] }
%"class.llvm::SmallVector.126" = type { %"class.llvm::SmallVectorImpl.127", %"struct.llvm::SmallVectorStorage.130" }
%"class.llvm::SmallVectorImpl.127" = type { %"class.llvm::SmallVectorTemplateBase.128" }
%"class.llvm::SmallVectorTemplateBase.128" = type { %"class.llvm::SmallVectorTemplateCommon.129" }
%"class.llvm::SmallVectorTemplateCommon.129" = type { %"class.llvm::SmallVectorBase" }
%"struct.llvm::SmallVectorStorage.130" = type { [48 x i8] }
%"class.llvm::SmallVector.131" = type { %"class.llvm::SmallVectorImpl.127", %"struct.llvm::SmallVectorStorage.132" }
%"struct.llvm::SmallVectorStorage.132" = type { [32 x i8] }
%"class.llvm::SmallVector.133" = type { %"class.llvm::SmallVectorImpl.127", %"struct.llvm::SmallVectorStorage.134" }
%"struct.llvm::SmallVectorStorage.134" = type { [80 x i8] }
%"class.llvm::SmallVector.135" = type { %"class.llvm::SmallVectorImpl.136", %"struct.llvm::SmallVectorStorage.139" }
%"class.llvm::SmallVectorImpl.136" = type { %"class.llvm::SmallVectorTemplateBase.137" }
%"class.llvm::SmallVectorTemplateBase.137" = type { %"class.llvm::SmallVectorTemplateCommon.138" }
%"class.llvm::SmallVectorTemplateCommon.138" = type { %"class.llvm::SmallVectorBase" }
%"struct.llvm::SmallVectorStorage.139" = type { [128 x i8] }
%"struct.llvm::Align" = type { i8 }
%"class.llvm::SmallVector.140" = type { %"class.llvm::SmallVectorImpl.141", %"struct.llvm::SmallVectorStorage.144" }
%"class.llvm::SmallVectorImpl.141" = type { %"class.llvm::SmallVectorTemplateBase.142" }
%"class.llvm::SmallVectorTemplateBase.142" = type { %"class.llvm::SmallVectorTemplateCommon.143" }
%"class.llvm::SmallVectorTemplateCommon.143" = type { %"class.llvm::SmallVectorBase" }
%"struct.llvm::SmallVectorStorage.144" = type { [32 x i8] }
%"class.llvm::Triple" = type { %"class.std::__cxx11::basic_string", i32, i32, i32, i32, i32, i32 }
%"class.std::unique_ptr.145" = type { %"struct.std::__uniq_ptr_data.146" }
%"struct.std::__uniq_ptr_data.146" = type { %"class.std::__uniq_ptr_impl.147" }
%"class.std::__uniq_ptr_impl.147" = type { %"class.std::tuple.148" }
%"class.std::tuple.148" = type { %"struct.std::_Tuple_impl.149" }
%"struct.std::_Tuple_impl.149" = type { %"struct.std::_Head_base.152" }
%"struct.std::_Head_base.152" = type { ptr }
%"class.std::unique_ptr.153" = type { %"struct.std::__uniq_ptr_data.154" }
%"struct.std::__uniq_ptr_data.154" = type { %"class.std::__uniq_ptr_impl.155" }
%"class.std::__uniq_ptr_impl.155" = type { %"class.std::tuple.156" }
%"class.std::tuple.156" = type { %"struct.std::_Tuple_impl.157" }
%"struct.std::_Tuple_impl.157" = type { %"struct.std::_Head_base.160" }
%"struct.std::_Head_base.160" = type { ptr }
%"class.std::unique_ptr.161" = type { %"struct.std::__uniq_ptr_data.162" }
%"struct.std::__uniq_ptr_data.162" = type { %"class.std::__uniq_ptr_impl.163" }
%"class.std::__uniq_ptr_impl.163" = type { %"class.std::tuple.164" }
%"class.std::tuple.164" = type { %"struct.std::_Tuple_impl.165" }
%"struct.std::_Tuple_impl.165" = type { %"struct.std::_Head_base.168" }
%"struct.std::_Head_base.168" = type { ptr }
%"class.std::unique_ptr.169" = type { %"struct.std::__uniq_ptr_data.170" }
%"struct.std::__uniq_ptr_data.170" = type { %"class.std::__uniq_ptr_impl.171" }
%"class.std::__uniq_ptr_impl.171" = type { %"class.std::tuple.172" }
%"class.std::tuple.172" = type { %"struct.std::_Tuple_impl.173" }
%"struct.std::_Tuple_impl.173" = type { %"struct.std::_Head_base.176" }
%"struct.std::_Head_base.176" = type { ptr }
%"class.std::optional.177" = type { %"struct.std::_Optional_base.178" }
%"struct.std::_Optional_base.178" = type { %"struct.std::_Optional_payload.180" }
%"struct.std::_Optional_payload.180" = type { %"struct.std::_Optional_payload.base", [7 x i8] }
%"struct.std::_Optional_payload.base" = type { %"struct.std::_Optional_payload_base.base" }
%"struct.std::_Optional_payload_base.base" = type <{ %"union.std::_Optional_payload_base<llvm::PGOOptions>::_Storage", i8 }>
%"union.std::_Optional_payload_base<llvm::PGOOptions>::_Storage" = type { %"struct.llvm::PGOOptions" }
%"struct.llvm::PGOOptions" = type { %"class.std::__cxx11::basic_string", %"class.std::__cxx11::basic_string", %"class.std::__cxx11::basic_string", %"class.std::__cxx11::basic_string", i32, i32, i32, i8, i8, i8, %"class.llvm::IntrusiveRefCntPtr" }
%"class.llvm::IntrusiveRefCntPtr" = type { ptr }
%"class.llvm::TargetOptions" = type { %"struct.std::pair", i16, i32, i32, i32, i32, %"class.std::shared_ptr", i16, %"class.std::__cxx11::basic_string", i32, i32, i32, i32, i32, i32, %"struct.llvm::DenormalMode", %"struct.llvm::DenormalMode", i32, %"class.llvm::MCTargetOptions", %"class.std::__cxx11::basic_string" }
%"struct.std::pair" = type { i32, i32 }
%"class.std::shared_ptr" = type { %"class.std::__shared_ptr" }
%"class.std::__shared_ptr" = type { ptr, %"class.std::__shared_count" }
%"class.std::__shared_count" = type { ptr }
%"struct.llvm::DenormalMode" = type { i8, i8 }
%"class.llvm::MCTargetOptions" = type <{ i16, i8, i8, i8, i8, [2 x i8], i32, i32, i32, i32, %"class.std::__cxx11::basic_string", %"class.std::__cxx11::basic_string", %"class.std::__cxx11::basic_string", %"class.std::__cxx11::basic_string", ptr, %"class.llvm::ArrayRef", %"class.std::vector.185", i8, [7 x i8] }>
%"class.llvm::ArrayRef" = type { ptr, i64 }
%"class.std::vector.185" = type { %"struct.std::_Vector_base.186" }
%"struct.std::_Vector_base.186" = type { %"struct.std::_Vector_base<std::__cxx11::basic_string<char>, std::allocator<std::__cxx11::basic_string<char>>>::_Vector_impl" }
%"struct.std::_Vector_base<std::__cxx11::basic_string<char>, std::allocator<std::__cxx11::basic_string<char>>>::_Vector_impl" = type { %"struct.std::_Vector_base<std::__cxx11::basic_string<char>, std::allocator<std::__cxx11::basic_string<char>>>::_Vector_impl_data" }
%"struct.std::_Vector_base<std::__cxx11::basic_string<char>, std::allocator<std::__cxx11::basic_string<char>>>::_Vector_impl_data" = type { ptr, ptr, ptr }

; Function Attrs: mustprogress nounwind uwtable
define linkonce_odr hidden noundef nonnull align 8 dereferenceable(56) ptr @_ZNK4llvm13TargetMachine15getTargetTripleEv(ptr noundef nonnull align 8 dereferenceable(1232) %0) #1 comdat align 2 {
  %2 = alloca ptr, align 8
  store ptr %0, ptr %2, align 8
  %3 = load ptr, ptr %2, align 8
  %4 = getelementptr inbounds nuw %"class.llvm::TargetMachine", ptr %3, i32 0, i32 3
  ret ptr %4
}

; Function Attrs: mustprogress nounwind uwtable
define dso_local void @_ZN4llvm29TargetLoweringObjectFileXCOFF10InitializeERNS_9MCContextERKNS_13TargetMachineE(ptr noundef nonnull align 8 dereferenceable(968) %0, ptr noundef nonnull align 8 dereferenceable(2432) %1, ptr noundef nonnull align 8 dereferenceable(1232) %2) unnamed_addr #1 align 2 {
  %4 = alloca ptr, align 8
  %5 = alloca ptr, align 8
  %6 = alloca ptr, align 8
  store ptr %0, ptr %4, align 8
  store ptr %1, ptr %5, align 8
  store ptr %2, ptr %6, align 8
  %7 = load ptr, ptr %4, align 8
  %8 = load ptr, ptr %5, align 8
  %9 = load ptr, ptr %6, align 8
  call void @_ZN4llvm24TargetLoweringObjectFile10InitializeERNS_9MCContextERKNS_13TargetMachineE(ptr noundef nonnull align 8 dereferenceable(968) %7, ptr noundef nonnull align 8 dereferenceable(2432) %8, ptr noundef nonnull align 8 dereferenceable(1232) %9)
  %10 = load ptr, ptr %6, align 8
  %11 = call noundef nonnull align 8 dereferenceable(56) ptr @_ZNK4llvm13TargetMachine15getTargetTripleEv(ptr noundef nonnull align 8 dereferenceable(1232) %10)
  %12 = call noundef zeroext i1 @_ZNK4llvm6Triple11isArch32BitEv(ptr noundef nonnull align 8 dereferenceable(56) %11)
  %13 = select i1 %12, i32 11, i32 12
  %14 = or i32 176, %13
  %15 = getelementptr inbounds nuw %"class.llvm::TargetLoweringObjectFile", ptr %7, i32 0, i32 8
  store i32 %14, ptr %15, align 4
  %16 = getelementptr inbounds nuw %"class.llvm::TargetLoweringObjectFile", ptr %7, i32 0, i32 6
  store i32 0, ptr %16, align 4
  %17 = getelementptr inbounds nuw %"class.llvm::TargetLoweringObjectFile", ptr %7, i32 0, i32 7
  store i32 0, ptr %17, align 8
  %18 = getelementptr inbounds nuw %"class.llvm::TargetLoweringObjectFile", ptr %7, i32 0, i32 9
  store i32 3, ptr %18, align 8
  %19 = getelementptr inbounds nuw %"class.llvm::TargetLoweringObjectFile", ptr %7, i32 0, i32 4
  store i8 0, ptr %19, align 2
  ret void
}