; Function Attrs: mustprogress nounwind uwtable
define dso_local void @_ZN4llvm29TargetLoweringObjectFileXCOFF10InitializeERNS_9MCContextERKNS_13TargetMachineE(ptr noundef nonnull align 8 dereferenceable(968) %0, ptr noundef nonnull align 8 dereferenceable(2432) %1, ptr noundef nonnull align 8 dereferenceable(1232) %2) unnamed_addr #0 align 2 {
  tail call void @_ZN4llvm24TargetLoweringObjectFile10InitializeERNS_9MCContextERKNS_13TargetMachineE(ptr noundef nonnull align 8 dereferenceable(968) %0, ptr noundef nonnull align 8 dereferenceable(2432) %1, ptr noundef nonnull align 8 dereferenceable(1232) %2) #24
  %4 = getelementptr inbounds nuw i8, ptr %2, i64 528
  %5 = tail call noundef zeroext i1 @_ZNK4llvm6Triple11isArch32BitEv(ptr noundef nonnull align 8 dereferenceable(56) %4) #24
  %6 = select i1 %5, i32 187, i32 188
  %7 = getelementptr inbounds nuw i8, ptr %0, i64 932
  store i32 %6, ptr %7, align 4
  %8 = getelementptr inbounds nuw i8, ptr %0, i64 924
  store i32 0, ptr %8, align 4
  %9 = getelementptr inbounds nuw i8, ptr %0, i64 928
  store i32 0, ptr %9, align 8
  %10 = getelementptr inbounds nuw i8, ptr %0, i64 936
  store i32 3, ptr %10, align 8
  %11 = getelementptr inbounds nuw i8, ptr %0, i64 922
  store i8 0, ptr %11, align 2
  ret void
}